; Function Attrs: nounwind uwtable
define dso_local ptr @get_signing_key() local_unnamed_addr #2 {
  %.b.i = load i1, ptr @gpg_interface_lazy_init.done, align 4
  br i1 %.b.i, label %gpg_interface_lazy_init.exit, label %1

1:                                                ; preds = %0
  store i1 true, ptr @gpg_interface_lazy_init.done, align 4
  %2 = load ptr, ptr @the_repository, align 8, !tbaa !18
  tail call void @repo_config(ptr noundef %2, ptr noundef nonnull @git_gpg_config, ptr noundef null) #15
  br label %gpg_interface_lazy_init.exit

gpg_interface_lazy_init.exit:                     ; preds = %0, %1
  %3 = load ptr, ptr @configured_signing_key, align 8, !tbaa !25
  %.not = icmp eq ptr %3, null
  br i1 %.not, label %6, label %4

4:                                                ; preds = %gpg_interface_lazy_init.exit
  %5 = tail call ptr @xstrdup(ptr noundef nonnull %3) #15
  br label %15

6:                                                ; preds = %gpg_interface_lazy_init.exit
  %7 = load ptr, ptr @use_format, align 8, !tbaa !38
  %8 = getelementptr inbounds nuw i8, ptr %7, i64 48
  %9 = load ptr, ptr %8, align 8, !tbaa !41
  %.not3 = icmp eq ptr %9, null
  br i1 %.not3, label %12, label %10

10:                                               ; preds = %6
  %11 = tail call ptr %9() #15
  br label %15

12:                                               ; preds = %6
  %13 = tail call ptr @git_committer_info(i32 noundef 3) #15
  %14 = tail call ptr @xstrdup(ptr noundef %13) #15
  br label %15

15:                                               ; preds = %12, %10, %4
  %.0 = phi ptr [ %5, %4 ], [ %11, %10 ], [ %14, %12 ]
  ret ptr %.0
}